; Function Attrs: mustprogress uwtable
define void @_ZN7rocksdb13DataBlockIter14SeekToLastImplEv(ptr noundef nonnull align 8 dereferenceable(408) %this) unnamed_addr #1 align 2 {
entry:
  %is_shared = alloca i8, align 1
  %data_ = getelementptr inbounds i8, ptr %this, i64 48
  %0 = load ptr, ptr %data_, align 8
  %cmp = icmp eq ptr %0, null
  br i1 %cmp, label %while.end, label %if.end

if.end:                                           ; preds = %entry
  %num_restarts_ = getelementptr inbounds i8, ptr %this, i64 56
  %1 = load i32, ptr %num_restarts_, align 8
  %sub = add i32 %1, -1
  %key_size_.i.i = getelementptr inbounds i8, ptr %this, i64 88
  store i64 0, ptr %key_size_.i.i, align 8
  %restart_index_.i = getelementptr inbounds i8, ptr %this, i64 60
  store i32 %sub, ptr %restart_index_.i, align 4
  %restarts_.i.i = getelementptr inbounds i8, ptr %this, i64 64
  %2 = load i32, ptr %restarts_.i.i, align 8
  %idx.ext.i.i = zext i32 %2 to i64
  %add.ptr.i.i = getelementptr inbounds i8, ptr %0, i64 %idx.ext.i.i
  %conv.i.i = zext i32 %sub to i64
  %mul.i.i = shl nuw nsw i64 %conv.i.i, 2
  %add.ptr2.i.i = getelementptr inbounds i8, ptr %add.ptr.i.i, i64 %mul.i.i
  %result.0.copyload.i.i.i = load i32, ptr %add.ptr2.i.i, align 1
  %idx.ext.i = zext i32 %result.0.copyload.i.i.i to i64
  %add.ptr.i = getelementptr inbounds i8, ptr %0, i64 %idx.ext.i
  %value_.i = getelementptr inbounds i8, ptr %this, i64 216
  store ptr %add.ptr.i, ptr %value_.i, align 8
  %ref.tmp.sroa.2.0.value_.sroa_idx.i = getelementptr inbounds i8, ptr %this, i64 224
  store i64 0, ptr %ref.tmp.sroa.2.0.value_.sroa_idx.i, align 8
  store i8 0, ptr %is_shared, align 1
  %block_restart_interval_ = getelementptr inbounds i8, ptr %this, i64 300
  %3 = load i32, ptr %block_restart_interval_, align 4
  %mul = mul i32 %3, %sub
  %cur_entry_idx_ = getelementptr inbounds i8, ptr %this, i64 296
  store i32 %mul, ptr %cur_entry_idx_, align 8
  %call.i3 = call noundef zeroext i1 @_ZN7rocksdb9BlockIterINS_5SliceEE12ParseNextKeyINS_11DecodeEntryEEEbPb(ptr noundef nonnull align 8 dereferenceable(320) %this, ptr noundef nonnull %is_shared)
  br i1 %call.i3, label %land.rhs, label %while.end

land.rhs:                                         ; preds = %if.end, %while.body
  %4 = load ptr, ptr %value_.i, align 8
  %5 = load i64, ptr %ref.tmp.sroa.2.0.value_.sroa_idx.i, align 8
  %add.ptr.i2 = getelementptr inbounds i8, ptr %4, i64 %5
  %6 = load ptr, ptr %data_, align 8
  %sub.ptr.lhs.cast.i = ptrtoint ptr %add.ptr.i2 to i64
  %sub.ptr.rhs.cast.i = ptrtoint ptr %6 to i64
  %sub.ptr.sub.i = sub i64 %sub.ptr.lhs.cast.i, %sub.ptr.rhs.cast.i
  %conv.i = trunc i64 %sub.ptr.sub.i to i32
  %7 = load i32, ptr %restarts_.i.i, align 8
  %cmp5 = icmp ugt i32 %7, %conv.i
  br i1 %cmp5, label %while.body, label %while.end

while.body:                                       ; preds = %land.rhs
  %8 = load i32, ptr %cur_entry_idx_, align 8
  %inc = add nsw i32 %8, 1
  store i32 %inc, ptr %cur_entry_idx_, align 8
  %call.i = call noundef zeroext i1 @_ZN7rocksdb9BlockIterINS_5SliceEE12ParseNextKeyINS_11DecodeEntryEEEbPb(ptr noundef nonnull align 8 dereferenceable(320) %this, ptr noundef nonnull %is_shared)
  br i1 %call.i, label %land.rhs, label %while.end, !llvm.loop !27

while.end:                                        ; preds = %land.rhs, %while.body, %if.end, %entry
  ret void
}